; Function Attrs: mustprogress nounwind uwtable
define hidden void @_ZN6hermes2vm6GCBase7GCCycleD2Ev(ptr noundef nonnull align 8 dereferenceable(48) %this) unnamed_addr #0 align 2 {
entry:
  %previousInGC_ = getelementptr inbounds i8, ptr %this, i64 40
  %0 = load i8, ptr %previousInGC_, align 8
  %1 = and i8 %0, 1
  %tobool.not = icmp eq i8 %1, 0
  br i1 %tobool.not, label %if.then, label %if.end

if.then:                                          ; preds = %entry
  %2 = load ptr, ptr %this, align 8
  %inGC_ = getelementptr inbounds i8, ptr %2, i64 129
  store i8 0, ptr %inGC_, align 1
  %3 = load ptr, ptr %this, align 8
  %gcCallbacks_.i = getelementptr inbounds i8, ptr %3, i64 32
  %4 = load ptr, ptr %gcCallbacks_.i, align 8
  %extraInfo_ = getelementptr inbounds i8, ptr %this, i64 8
  %vtable = load ptr, ptr %4, align 8
  %vfn = getelementptr inbounds i8, ptr %vtable, i64 104
  %5 = load ptr, ptr %vfn, align 8
  tail call void %5(ptr noundef nonnull align 8 dereferenceable(8) %4, i32 noundef 1, ptr noundef nonnull align 8 dereferenceable(32) %extraInfo_) #27
  br label %if.end

if.end:                                           ; preds = %if.then, %entry
  %extraInfo_3 = getelementptr inbounds i8, ptr %this, i64 8
  tail call void @_ZNSt7__cxx1112basic_stringIcSt11char_traitsIcESaIcEED1Ev(ptr noundef nonnull align 8 dereferenceable(32) %extraInfo_3) #27
  ret void
}